; Function Attrs: mustprogress uwtable
define void @_Z16duDebugDrawCrossP11duDebugDrawffffjf(ptr noundef %0, float noundef %1, float noundef %2, float noundef %3, float noundef %4, i32 noundef %5, float noundef %6) local_unnamed_addr #4 {
  %.not = icmp eq ptr %0, null
  br i1 %.not, label %38, label %_Z13duAppendCrossP11duDebugDrawffffj.exit

_Z13duAppendCrossP11duDebugDrawffffj.exit:        ; preds = %7
  %8 = load ptr, ptr %0, align 8
  %9 = getelementptr inbounds i8, ptr %8, i64 32
  %10 = load ptr, ptr %9, align 8
  tail call void %10(ptr noundef nonnull align 8 dereferenceable(8) %0, i32 noundef 1, float noundef %6)
  %11 = fsub float %1, %4
  %12 = load ptr, ptr %0, align 8
  %13 = getelementptr inbounds i8, ptr %12, i64 48
  %14 = load ptr, ptr %13, align 8
  tail call void %14(ptr noundef nonnull align 8 dereferenceable(8) %0, float noundef %11, float noundef %2, float noundef %3, i32 noundef %5)
  %15 = fadd float %1, %4
  %16 = load ptr, ptr %0, align 8
  %17 = getelementptr inbounds i8, ptr %16, i64 48
  %18 = load ptr, ptr %17, align 8
  tail call void %18(ptr noundef nonnull align 8 dereferenceable(8) %0, float noundef %15, float noundef %2, float noundef %3, i32 noundef %5)
  %19 = fsub float %2, %4
  %20 = load ptr, ptr %0, align 8
  %21 = getelementptr inbounds i8, ptr %20, i64 48
  %22 = load ptr, ptr %21, align 8
  tail call void %22(ptr noundef nonnull align 8 dereferenceable(8) %0, float noundef %1, float noundef %19, float noundef %3, i32 noundef %5)
  %23 = fadd float %2, %4
  %24 = load ptr, ptr %0, align 8
  %25 = getelementptr inbounds i8, ptr %24, i64 48
  %26 = load ptr, ptr %25, align 8
  tail call void %26(ptr noundef nonnull align 8 dereferenceable(8) %0, float noundef %1, float noundef %23, float noundef %3, i32 noundef %5)
  %27 = fsub float %3, %4
  %28 = load ptr, ptr %0, align 8
  %29 = getelementptr inbounds i8, ptr %28, i64 48
  %30 = load ptr, ptr %29, align 8
  tail call void %30(ptr noundef nonnull align 8 dereferenceable(8) %0, float noundef %1, float noundef %2, float noundef %27, i32 noundef %5)
  %31 = fadd float %3, %4
  %32 = load ptr, ptr %0, align 8
  %33 = getelementptr inbounds i8, ptr %32, i64 48
  %34 = load ptr, ptr %33, align 8
  tail call void %34(ptr noundef nonnull align 8 dereferenceable(8) %0, float noundef %1, float noundef %2, float noundef %31, i32 noundef %5)
  %35 = load ptr, ptr %0, align 8
  %36 = getelementptr inbounds i8, ptr %35, i64 72
  %37 = load ptr, ptr %36, align 8
  tail call void %37(ptr noundef nonnull align 8 dereferenceable(8) %0)
  br label %38

38:                                               ; preds = %7, %_Z13duAppendCrossP11duDebugDrawffffj.exit
  ret void
}